target datalayout = "e-m:e-p270:32:32-p271:32:32-p272:64:64-i64:64-i128:128-f80:128-n8:16:32:64-S128"
target triple = "x86_64-pc-linux-gnu"

%struct._zval_struct = type { %union._zend_value, %union.anon, %union.anon.2 }
%union._zend_value = type { i64 }
%union.anon = type { i32 }
%union.anon.2 = type { i32 }
%struct._zend_refcounted_h = type { i32, %union.anon.3 }
%union.anon.3 = type { i32 }
%struct.php_sxe_object = type { ptr, ptr, ptr, ptr, %struct.anon.8, %struct._zval_struct, ptr, %struct._zend_object }
%struct.anon.8 = type { ptr, ptr, i32, i32, %struct._zval_struct }
%struct._zend_object = type { %struct._zend_refcounted_h, i32, ptr, ptr, ptr, [1 x %struct._zval_struct] }
%struct._php_libxml_node_ptr = type { ptr, i32, ptr }
%struct._xmlNode = type { ptr, i32, ptr, ptr, ptr, ptr, ptr, ptr, ptr, ptr, ptr, ptr, ptr, ptr, i16, i16 }

@.str.1 = private unnamed_addr constant [45 x i8] c"SimpleXMLElement is not properly initialized\00", align 1

; Function Attrs: nounwind uwtable
define internal ptr @php_sxe_fetch_object(ptr noundef %0) #0 {
  %2 = alloca ptr, align 8
  store ptr %0, ptr %2, align 8
  %3 = load ptr, ptr %2, align 8
  %4 = getelementptr inbounds i8, ptr %3, i64 -96
  ret ptr %4
}

; Function Attrs: nounwind uwtable
define dso_local void @php_sxe_move_forward_iterator(ptr noundef %0) #0 {
  %2 = alloca ptr, align 8
  %3 = alloca ptr, align 8
  %4 = alloca ptr, align 8
  %5 = alloca ptr, align 8
  store ptr %0, ptr %3, align 8
  store ptr null, ptr %4, align 8
  %6 = load ptr, ptr %3, align 8
  %7 = getelementptr inbounds %struct.php_sxe_object, ptr %6, i32 0, i32 4
  %8 = getelementptr inbounds %struct.anon.8, ptr %7, i32 0, i32 4
  store ptr %8, ptr %2, align 8
  %9 = load ptr, ptr %2, align 8
  %10 = getelementptr inbounds %struct._zval_struct, ptr %9, i32 0, i32 1
  %11 = load i8, ptr %10, align 8
  %12 = zext i8 %11 to i32
  %13 = icmp eq i32 %12, 0
  br i1 %13, label %49, label %14

14:                                               ; preds = %1
  %15 = load ptr, ptr %3, align 8
  %16 = getelementptr inbounds %struct.php_sxe_object, ptr %15, i32 0, i32 4
  %17 = getelementptr inbounds %struct.anon.8, ptr %16, i32 0, i32 4
  %18 = getelementptr inbounds %struct._zval_struct, ptr %17, i32 0, i32 0
  %19 = load ptr, ptr %18, align 8
  %20 = call ptr @php_sxe_fetch_object(ptr noundef %19)
  store ptr %20, ptr %5, align 8
  %21 = load ptr, ptr %5, align 8
  %22 = getelementptr inbounds %struct.php_sxe_object, ptr %21, i32 0, i32 0
  %23 = load ptr, ptr %22, align 8
  %24 = icmp ne ptr %23, null
  br i1 %24, label %25, label %38

25:                                               ; preds = %14
  %26 = load ptr, ptr %5, align 8
  %27 = getelementptr inbounds %struct.php_sxe_object, ptr %26, i32 0, i32 0
  %28 = load ptr, ptr %27, align 8
  %29 = getelementptr inbounds %struct._php_libxml_node_ptr, ptr %28, i32 0, i32 0
  %30 = load ptr, ptr %29, align 8
  %31 = icmp ne ptr %30, null
  br i1 %31, label %32, label %38

32:                                               ; preds = %25
  %33 = load ptr, ptr %5, align 8
  %34 = getelementptr inbounds %struct.php_sxe_object, ptr %33, i32 0, i32 0
  %35 = load ptr, ptr %34, align 8
  %36 = getelementptr inbounds %struct._php_libxml_node_ptr, ptr %35, i32 0, i32 0
  %37 = load ptr, ptr %36, align 8
  store ptr %37, ptr %4, align 8
  br label %39

38:                                               ; preds = %25, %14
  store ptr null, ptr %4, align 8
  call void (ptr, ptr, ...) @zend_throw_error(ptr noundef null, ptr noundef @.str.1)
  br label %39

39:                                               ; preds = %38, %32
  %40 = load ptr, ptr %3, align 8
  %41 = getelementptr inbounds %struct.php_sxe_object, ptr %40, i32 0, i32 4
  %42 = getelementptr inbounds %struct.anon.8, ptr %41, i32 0, i32 4
  call void @zval_ptr_dtor(ptr noundef %42)
  br label %43

43:                                               ; preds = %39
  %44 = load ptr, ptr %3, align 8
  %45 = getelementptr inbounds %struct.php_sxe_object, ptr %44, i32 0, i32 4
  %46 = getelementptr inbounds %struct.anon.8, ptr %45, i32 0, i32 4
  %47 = getelementptr inbounds %struct._zval_struct, ptr %46, i32 0, i32 1
  store i32 0, ptr %47, align 8
  br label %48

48:                                               ; preds = %43
  br label %49

49:                                               ; preds = %48, %1
  %50 = load ptr, ptr %4, align 8
  %51 = icmp ne ptr %50, null
  br i1 %51, label %52, label %58

52:                                               ; preds = %49
  %53 = load ptr, ptr %3, align 8
  %54 = load ptr, ptr %4, align 8
  %55 = getelementptr inbounds %struct._xmlNode, ptr %54, i32 0, i32 6
  %56 = load ptr, ptr %55, align 8
  %57 = call ptr @php_sxe_iterator_fetch(ptr noundef %53, ptr noundef %56, i32 noundef 1)
  br label %58

58:                                               ; preds = %52, %49
  ret void
}