; Function Attrs: nounwind uwtable
define dso_local void @php_sxe_move_forward_iterator(ptr noundef %0) local_unnamed_addr #1 {
  %2 = getelementptr inbounds i8, ptr %0, i64 56
  %3 = getelementptr inbounds i8, ptr %0, i64 64
  %4 = load i8, ptr %3, align 8
  %5 = icmp eq i8 %4, 0
  br i1 %5, label %.thread, label %6

6:                                                ; preds = %1
  %7 = load ptr, ptr %2, align 8
  %8 = getelementptr inbounds i8, ptr %7, i64 -96
  %9 = load ptr, ptr %8, align 8
  %.not = icmp eq ptr %9, null
  br i1 %.not, label %.thread17, label %10

10:                                               ; preds = %6
  %11 = load ptr, ptr %9, align 8
  %.not13 = icmp eq ptr %11, null
  br i1 %.not13, label %.thread17, label %12

.thread17:                                        ; preds = %6, %10
  tail call void (ptr, ptr, ...) @zend_throw_error(ptr noundef null, ptr noundef nonnull @.str.1) #14
  tail call void @zval_ptr_dtor(ptr noundef nonnull %2) #14
  store i32 0, ptr %3, align 8
  br label %.thread

12:                                               ; preds = %10
  tail call void @zval_ptr_dtor(ptr noundef nonnull %2) #14
  store i32 0, ptr %3, align 8
  %13 = getelementptr inbounds i8, ptr %11, i64 48
  %14 = load ptr, ptr %13, align 8
  %15 = tail call fastcc ptr @php_sxe_iterator_fetch(ptr noundef nonnull %0, ptr noundef %14, i32 noundef 1)
  br label %.thread

.thread:                                          ; preds = %1, %.thread17, %12
  ret void
}